target datalayout = "e-m:e-p270:32:32-p271:32:32-p272:64:64-i64:64-i128:128-f80:128-n8:16:32:64-S128"
target triple = "x86_64-pc-linux-gnu"

%struct.aiString = type { i32, [1024 x i8] }
%struct.aiColor3D = type { float, float, float }
%"class.Assimp::ScenePreprocessor" = type { ptr }
%struct.aiScene = type { i32, ptr, i32, ptr, i32, ptr, i32, ptr, i32, ptr, i32, ptr, i32, ptr, ptr, %struct.aiString, i32, ptr, ptr }
%struct.aiMesh = type { i32, i32, i32, ptr, ptr, ptr, ptr, [8 x ptr], [8 x ptr], [8 x i32], ptr, i32, ptr, i32, %struct.aiString, i32, ptr, i32, %struct.aiAABB, ptr }
%struct.aiAABB = type { %class.aiVector3t, %class.aiVector3t }
%class.aiVector3t = type { float, float, float }

@.str = private unnamed_addr constant [13 x i8] c"$clr.diffuse\00", align 1
@.str.1 = private unnamed_addr constant [16 x i8] c"DefaultMaterial\00", align 1
@.str.2 = private unnamed_addr constant [10 x i8] c"?mat.name\00", align 1
@.str.3 = private unnamed_addr constant [61 x i8] c"ScenePreprocessor: Adding default material 'DefaultMaterial'\00", align 1

; Function Attrs: inlinehint mustprogress nounwind uwtable
define linkonce_odr hidden noundef i32 @_Z29ai_real_to_property_type_infof(float noundef %0) #10 comdat {
  %2 = alloca float, align 4
  store float %0, ptr %2, align 4
  ret i32 1
}

; Function Attrs: mustprogress nounwind uwtable
define linkonce_odr hidden void @_ZN8aiString3SetEPKc(ptr noundef nonnull align 4 dereferenceable(1028) %0, ptr noundef %1) #4 comdat align 2 {
  %3 = alloca ptr, align 8
  %4 = alloca ptr, align 8
  %5 = alloca i32, align 4
  store ptr %0, ptr %3, align 8
  store ptr %1, ptr %4, align 8
  %6 = load ptr, ptr %3, align 8
  call void @llvm.lifetime.start.p0(i64 4, ptr %5) #15
  %7 = load ptr, ptr %4, align 8
  %8 = call i64 @strlen(ptr noundef %7) #18
  %9 = trunc i64 %8 to i32
  store i32 %9, ptr %5, align 4
  %10 = load i32, ptr %5, align 4
  %11 = icmp sgt i32 %10, 1023
  br i1 %11, label %12, label %13

12:                                               ; preds = %2
  store i32 1023, ptr %5, align 4
  br label %13

13:                                               ; preds = %12, %2
  %14 = load i32, ptr %5, align 4
  %15 = getelementptr inbounds nuw %struct.aiString, ptr %6, i32 0, i32 0
  store i32 %14, ptr %15, align 4
  %16 = getelementptr inbounds nuw %struct.aiString, ptr %6, i32 0, i32 1
  %17 = getelementptr inbounds [1024 x i8], ptr %16, i64 0, i64 0
  %18 = load ptr, ptr %4, align 8
  %19 = load i32, ptr %5, align 4
  %20 = sext i32 %19 to i64
  call void @llvm.memcpy.p0.p0.i64(ptr align 4 %17, ptr align 1 %18, i64 %20, i1 false)
  %21 = getelementptr inbounds nuw %struct.aiString, ptr %6, i32 0, i32 1
  %22 = load i32, ptr %5, align 4
  %23 = sext i32 %22 to i64
  %24 = getelementptr inbounds [1024 x i8], ptr %21, i64 0, i64 %23
  store i8 0, ptr %24, align 1
  call void @llvm.lifetime.end.p0(i64 4, ptr %5) #15
  ret void
}

; Function Attrs: inlinehint mustprogress uwtable
define linkonce_odr noundef i32 @_ZN10aiMaterial11AddPropertyEPK9aiColor3DjPKcjj(ptr noundef nonnull align 8 dereferenceable(16) %0, ptr noundef %1, i32 noundef %2, ptr noundef %3, i32 noundef %4, i32 noundef %5) #7 comdat align 2 {
  %7 = alloca ptr, align 8
  %8 = alloca ptr, align 8
  %9 = alloca i32, align 4
  %10 = alloca ptr, align 8
  %11 = alloca i32, align 4
  %12 = alloca i32, align 4
  store ptr %0, ptr %7, align 8
  store ptr %1, ptr %8, align 8
  store i32 %2, ptr %9, align 4
  store ptr %3, ptr %10, align 8
  store i32 %4, ptr %11, align 4
  store i32 %5, ptr %12, align 4
  %13 = load ptr, ptr %7, align 8
  %14 = load ptr, ptr %8, align 8
  %15 = load i32, ptr %9, align 4
  %16 = zext i32 %15 to i64
  %17 = mul i64 %16, 12
  %18 = trunc i64 %17 to i32
  %19 = load ptr, ptr %10, align 8
  %20 = load i32, ptr %11, align 4
  %21 = load i32, ptr %12, align 4
  %22 = load ptr, ptr %8, align 8
  %23 = getelementptr inbounds nuw %struct.aiColor3D, ptr %22, i32 0, i32 2
  %24 = load float, ptr %23, align 4
  %25 = call noundef i32 @_Z29ai_real_to_property_type_infof(float noundef %24)
  %26 = call noundef i32 @_ZN10aiMaterial17AddBinaryPropertyEPKvjPKcjj18aiPropertyTypeInfo(ptr noundef nonnull align 8 dereferenceable(16) %13, ptr noundef %14, i32 noundef %18, ptr noundef %19, i32 noundef %20, i32 noundef %21, i32 noundef %25)
  ret i32 %26
}

; Function Attrs: mustprogress nounwind uwtable
define linkonce_odr hidden void @_ZN9aiColor3DC2Efff(ptr noundef nonnull align 4 dereferenceable(12) %0, float noundef %1, float noundef %2, float noundef %3) unnamed_addr #4 comdat align 2 {
  %5 = alloca ptr, align 8
  %6 = alloca float, align 4
  %7 = alloca float, align 4
  %8 = alloca float, align 4
  store ptr %0, ptr %5, align 8
  store float %1, ptr %6, align 4
  store float %2, ptr %7, align 4
  store float %3, ptr %8, align 4
  %9 = load ptr, ptr %5, align 8
  %10 = getelementptr inbounds nuw %struct.aiColor3D, ptr %9, i32 0, i32 0
  %11 = load float, ptr %6, align 4
  store float %11, ptr %10, align 4
  %12 = getelementptr inbounds nuw %struct.aiColor3D, ptr %9, i32 0, i32 1
  %13 = load float, ptr %7, align 4
  store float %13, ptr %12, align 4
  %14 = getelementptr inbounds nuw %struct.aiColor3D, ptr %9, i32 0, i32 2
  %15 = load float, ptr %8, align 4
  store float %15, ptr %14, align 4
  ret void
}

; Function Attrs: mustprogress nounwind uwtable
define linkonce_odr hidden void @_ZN8aiStringC2Ev(ptr noundef nonnull align 4 dereferenceable(1028) %0) unnamed_addr #4 comdat align 2 {
  %2 = alloca ptr, align 8
  store ptr %0, ptr %2, align 8
  %3 = load ptr, ptr %2, align 8
  %4 = getelementptr inbounds nuw %struct.aiString, ptr %3, i32 0, i32 0
  store i32 0, ptr %4, align 4
  %5 = getelementptr inbounds nuw %struct.aiString, ptr %3, i32 0, i32 1
  call void @llvm.memset.p0.i64(ptr align 4 %5, i8 0, i64 1024, i1 false)
  ret void
}

; Function Attrs: mustprogress uwtable
define void @_ZN6Assimp17ScenePreprocessor12ProcessSceneEv(ptr noundef nonnull align 8 dereferenceable(8) %0) #0 align 2 personality ptr @__gxx_personality_v0 {
  %2 = alloca ptr, align 8
  %3 = alloca i32, align 4
  %4 = alloca i32, align 4
  %5 = alloca ptr, align 8
  %6 = alloca %struct.aiString, align 4
  %7 = alloca ptr, align 8
  %8 = alloca i32, align 4
  %9 = alloca %struct.aiColor3D, align 4
  %10 = alloca i32, align 4
  store ptr %0, ptr %2, align 8
  %11 = load ptr, ptr %2, align 8
  call void @llvm.lifetime.start.p0(i64 4, ptr %3) #15
  store i32 0, ptr %3, align 4
  br label %12

12:                                               ; preds = %40, %1
  %13 = load i32, ptr %3, align 4
  %14 = getelementptr inbounds nuw %"class.Assimp::ScenePreprocessor", ptr %11, i32 0, i32 0
  %15 = load ptr, ptr %14, align 8
  %16 = getelementptr inbounds nuw %struct.aiScene, ptr %15, i32 0, i32 2
  %17 = load i32, ptr %16, align 8
  %18 = icmp ult i32 %13, %17
  br i1 %18, label %20, label %19

19:                                               ; preds = %12
  call void @llvm.lifetime.end.p0(i64 4, ptr %3) #15
  br label %43

20:                                               ; preds = %12
  %21 = getelementptr inbounds nuw %"class.Assimp::ScenePreprocessor", ptr %11, i32 0, i32 0
  %22 = load ptr, ptr %21, align 8
  %23 = getelementptr inbounds nuw %struct.aiScene, ptr %22, i32 0, i32 3
  %24 = load ptr, ptr %23, align 8
  %25 = load i32, ptr %3, align 4
  %26 = zext i32 %25 to i64
  %27 = getelementptr inbounds nuw ptr, ptr %24, i64 %26
  %28 = load ptr, ptr %27, align 8
  %29 = icmp eq ptr null, %28
  br i1 %29, label %30, label %31

30:                                               ; preds = %20
  br label %40

31:                                               ; preds = %20
  %32 = getelementptr inbounds nuw %"class.Assimp::ScenePreprocessor", ptr %11, i32 0, i32 0
  %33 = load ptr, ptr %32, align 8
  %34 = getelementptr inbounds nuw %struct.aiScene, ptr %33, i32 0, i32 3
  %35 = load ptr, ptr %34, align 8
  %36 = load i32, ptr %3, align 4
  %37 = zext i32 %36 to i64
  %38 = getelementptr inbounds nuw ptr, ptr %35, i64 %37
  %39 = load ptr, ptr %38, align 8
  call void @_ZN6Assimp17ScenePreprocessor11ProcessMeshEP6aiMesh(ptr noundef nonnull align 8 dereferenceable(8) %11, ptr noundef %39)
  br label %40

40:                                               ; preds = %31, %30
  %41 = load i32, ptr %3, align 4
  %42 = add i32 %41, 1
  store i32 %42, ptr %3, align 4
  br label %12, !llvm.loop !3

43:                                               ; preds = %19
  call void @llvm.lifetime.start.p0(i64 4, ptr %4) #15
  store i32 0, ptr %4, align 4
  br label %44

44:                                               ; preds = %72, %43
  %45 = load i32, ptr %4, align 4
  %46 = getelementptr inbounds nuw %"class.Assimp::ScenePreprocessor", ptr %11, i32 0, i32 0
  %47 = load ptr, ptr %46, align 8
  %48 = getelementptr inbounds nuw %struct.aiScene, ptr %47, i32 0, i32 6
  %49 = load i32, ptr %48, align 8
  %50 = icmp ult i32 %45, %49
  br i1 %50, label %52, label %51

51:                                               ; preds = %44
  call void @llvm.lifetime.end.p0(i64 4, ptr %4) #15
  br label %75

52:                                               ; preds = %44
  %53 = getelementptr inbounds nuw %"class.Assimp::ScenePreprocessor", ptr %11, i32 0, i32 0
  %54 = load ptr, ptr %53, align 8
  %55 = getelementptr inbounds nuw %struct.aiScene, ptr %54, i32 0, i32 7
  %56 = load ptr, ptr %55, align 8
  %57 = load i32, ptr %4, align 4
  %58 = zext i32 %57 to i64
  %59 = getelementptr inbounds nuw ptr, ptr %56, i64 %58
  %60 = load ptr, ptr %59, align 8
  %61 = icmp eq ptr null, %60
  br i1 %61, label %62, label %63

62:                                               ; preds = %52
  br label %72

63:                                               ; preds = %52
  %64 = getelementptr inbounds nuw %"class.Assimp::ScenePreprocessor", ptr %11, i32 0, i32 0
  %65 = load ptr, ptr %64, align 8
  %66 = getelementptr inbounds nuw %struct.aiScene, ptr %65, i32 0, i32 7
  %67 = load ptr, ptr %66, align 8
  %68 = load i32, ptr %4, align 4
  %69 = zext i32 %68 to i64
  %70 = getelementptr inbounds nuw ptr, ptr %67, i64 %69
  %71 = load ptr, ptr %70, align 8
  call void @_ZN6Assimp17ScenePreprocessor16ProcessAnimationEP11aiAnimation(ptr noundef nonnull align 8 dereferenceable(8) %11, ptr noundef %71)
  br label %72

72:                                               ; preds = %63, %62
  %73 = load i32, ptr %4, align 4
  %74 = add i32 %73, 1
  store i32 %74, ptr %4, align 4
  br label %44, !llvm.loop !5

75:                                               ; preds = %51
  %76 = getelementptr inbounds nuw %"class.Assimp::ScenePreprocessor", ptr %11, i32 0, i32 0
  %77 = load ptr, ptr %76, align 8
  %78 = getelementptr inbounds nuw %struct.aiScene, ptr %77, i32 0, i32 4
  %79 = load i32, ptr %78, align 8
  %80 = icmp ne i32 %79, 0
  br i1 %80, label %155, label %81

81:                                               ; preds = %75
  %82 = getelementptr inbounds nuw %"class.Assimp::ScenePreprocessor", ptr %11, i32 0, i32 0
  %83 = load ptr, ptr %82, align 8
  %84 = getelementptr inbounds nuw %struct.aiScene, ptr %83, i32 0, i32 2
  %85 = load i32, ptr %84, align 8
  %86 = icmp ne i32 %85, 0
  br i1 %86, label %87, label %155

87:                                               ; preds = %81
  %88 = call noalias noundef nonnull ptr @_Znam(i64 noundef 16) #16
  %89 = getelementptr inbounds nuw %"class.Assimp::ScenePreprocessor", ptr %11, i32 0, i32 0
  %90 = load ptr, ptr %89, align 8
  %91 = getelementptr inbounds nuw %struct.aiScene, ptr %90, i32 0, i32 5
  store ptr %88, ptr %91, align 8
  call void @llvm.lifetime.start.p0(i64 8, ptr %5) #15
  call void @llvm.lifetime.start.p0(i64 1028, ptr %6) #15
  call void @_ZN8aiStringC2Ev(ptr noundef nonnull align 4 dereferenceable(1028) %6) #15
  %92 = call noalias noundef nonnull ptr @_Znwm(i64 noundef 16) #16
  invoke void @_ZN10aiMaterialC1Ev(ptr noundef nonnull align 8 dereferenceable(16) %92)
          to label %93 unwind label %117

93:                                               ; preds = %87
  store ptr %92, ptr %5, align 8
  %94 = getelementptr inbounds nuw %"class.Assimp::ScenePreprocessor", ptr %11, i32 0, i32 0
  %95 = load ptr, ptr %94, align 8
  %96 = getelementptr inbounds nuw %struct.aiScene, ptr %95, i32 0, i32 5
  %97 = load ptr, ptr %96, align 8
  %98 = getelementptr inbounds nuw %"class.Assimp::ScenePreprocessor", ptr %11, i32 0, i32 0
  %99 = load ptr, ptr %98, align 8
  %100 = getelementptr inbounds nuw %struct.aiScene, ptr %99, i32 0, i32 4
  %101 = load i32, ptr %100, align 8
  %102 = zext i32 %101 to i64
  %103 = getelementptr inbounds nuw ptr, ptr %97, i64 %102
  store ptr %92, ptr %103, align 8
  call void @llvm.lifetime.start.p0(i64 12, ptr %9) #15
  call void @_ZN9aiColor3DC2Efff(ptr noundef nonnull align 4 dereferenceable(12) %9, float noundef 0x3FE3333340000000, float noundef 0x3FE3333340000000, float noundef 0x3FE3333340000000)
  %104 = load ptr, ptr %5, align 8
  %105 = call noundef i32 @_ZN10aiMaterial11AddPropertyEPK9aiColor3DjPKcjj(ptr noundef nonnull align 8 dereferenceable(16) %104, ptr noundef %9, i32 noundef 1, ptr noundef @.str, i32 noundef 0, i32 noundef 0)
  call void @_ZN8aiString3SetEPKc(ptr noundef nonnull align 4 dereferenceable(1028) %6, ptr noundef @.str.1)
  %106 = load ptr, ptr %5, align 8
  %107 = call noundef i32 @_ZN10aiMaterial11AddPropertyEPK8aiStringPKcjj(ptr noundef nonnull align 8 dereferenceable(16) %106, ptr noundef %6, ptr noundef @.str.2, i32 noundef 0, i32 noundef 0)
  %108 = call noundef ptr @_ZN6Assimp13DefaultLogger3getEv()
  call void @_ZN6Assimp6Logger5debugEPKc(ptr noundef nonnull align 8 dereferenceable(12) %108, ptr noundef @.str.3)
  call void @llvm.lifetime.start.p0(i64 4, ptr %10) #15
  store i32 0, ptr %10, align 4
  br label %109

109:                                              ; preds = %146, %93
  %110 = load i32, ptr %10, align 4
  %111 = getelementptr inbounds nuw %"class.Assimp::ScenePreprocessor", ptr %11, i32 0, i32 0
  %112 = load ptr, ptr %111, align 8
  %113 = getelementptr inbounds nuw %struct.aiScene, ptr %112, i32 0, i32 2
  %114 = load i32, ptr %113, align 8
  %115 = icmp ult i32 %110, %114
  br i1 %115, label %121, label %116

116:                                              ; preds = %109
  call void @llvm.lifetime.end.p0(i64 4, ptr %10) #15
  br label %149

117:                                              ; preds = %87
  %118 = landingpad { ptr, i32 }
          cleanup
  %119 = extractvalue { ptr, i32 } %118, 0
  store ptr %119, ptr %7, align 8
  %120 = extractvalue { ptr, i32 } %118, 1
  store i32 %120, ptr %8, align 4
  call void @_ZdlPvm(ptr noundef %92, i64 noundef 16) #17
  call void @llvm.lifetime.end.p0(i64 1028, ptr %6) #15
  call void @llvm.lifetime.end.p0(i64 8, ptr %5) #15
  br label %156

121:                                              ; preds = %109
  %122 = getelementptr inbounds nuw %"class.Assimp::ScenePreprocessor", ptr %11, i32 0, i32 0
  %123 = load ptr, ptr %122, align 8
  %124 = getelementptr inbounds nuw %struct.aiScene, ptr %123, i32 0, i32 3
  %125 = load ptr, ptr %124, align 8
  %126 = load i32, ptr %10, align 4
  %127 = zext i32 %126 to i64
  %128 = getelementptr inbounds nuw ptr, ptr %125, i64 %127
  %129 = load ptr, ptr %128, align 8
  %130 = icmp eq ptr null, %129
  br i1 %130, label %131, label %132

131:                                              ; preds = %121
  br label %146

132:                                              ; preds = %121
  %133 = getelementptr inbounds nuw %"class.Assimp::ScenePreprocessor", ptr %11, i32 0, i32 0
  %134 = load ptr, ptr %133, align 8
  %135 = getelementptr inbounds nuw %struct.aiScene, ptr %134, i32 0, i32 4
  %136 = load i32, ptr %135, align 8
  %137 = getelementptr inbounds nuw %"class.Assimp::ScenePreprocessor", ptr %11, i32 0, i32 0
  %138 = load ptr, ptr %137, align 8
  %139 = getelementptr inbounds nuw %struct.aiScene, ptr %138, i32 0, i32 3
  %140 = load ptr, ptr %139, align 8
  %141 = load i32, ptr %10, align 4
  %142 = zext i32 %141 to i64
  %143 = getelementptr inbounds nuw ptr, ptr %140, i64 %142
  %144 = load ptr, ptr %143, align 8
  %145 = getelementptr inbounds nuw %struct.aiMesh, ptr %144, i32 0, i32 13
  store i32 %136, ptr %145, align 8
  br label %146

146:                                              ; preds = %132, %131
  %147 = load i32, ptr %10, align 4
  %148 = add i32 %147, 1
  store i32 %148, ptr %10, align 4
  br label %109, !llvm.loop !6

149:                                              ; preds = %116
  %150 = getelementptr inbounds nuw %"class.Assimp::ScenePreprocessor", ptr %11, i32 0, i32 0
  %151 = load ptr, ptr %150, align 8
  %152 = getelementptr inbounds nuw %struct.aiScene, ptr %151, i32 0, i32 4
  %153 = load i32, ptr %152, align 8
  %154 = add i32 %153, 1
  store i32 %154, ptr %152, align 8
  call void @llvm.lifetime.end.p0(i64 12, ptr %9) #15
  call void @llvm.lifetime.end.p0(i64 1028, ptr %6) #15
  call void @llvm.lifetime.end.p0(i64 8, ptr %5) #15
  br label %155

155:                                              ; preds = %149, %81, %75
  ret void

156:                                              ; preds = %117
  %157 = load ptr, ptr %7, align 8
  %158 = load i32, ptr %8, align 4
  %159 = insertvalue { ptr, i32 } poison, ptr %157, 0
  %160 = insertvalue { ptr, i32 } %159, i32 %158, 1
  resume { ptr, i32 } %160
}