; Function Attrs: mustprogress uwtable
define void @_ZN6Assimp17ScenePreprocessor12ProcessSceneEv(ptr noundef nonnull readonly align 8 captures(none) dereferenceable(8) %0) local_unnamed_addr #0 align 2 personality ptr @__gxx_personality_v0 {
  %2 = alloca %struct.aiString, align 4
  %3 = alloca %struct.aiColor3D, align 4
  %4 = load ptr, ptr %0, align 8
  %5 = getelementptr inbounds nuw i8, ptr %4, i64 16
  %6 = load i32, ptr %5, align 8
  %.not31 = icmp eq i32 %6, 0
  br i1 %.not31, label %.preheader, label %.lr.ph

.preheader:                                       ; preds = %17, %1
  %7 = phi ptr [ %4, %1 ], [ %18, %17 ]
  %8 = getelementptr inbounds nuw i8, ptr %7, i64 48
  %9 = load i32, ptr %8, align 8
  %.not32 = icmp eq i32 %9, 0
  br i1 %.not32, label %._crit_edge, label %.lr.ph25

.lr.ph:                                           ; preds = %1, %17
  %10 = phi ptr [ %18, %17 ], [ %4, %1 ]
  %indvars.iv = phi i64 [ %indvars.iv.next, %17 ], [ 0, %1 ]
  %11 = getelementptr inbounds nuw i8, ptr %10, i64 24
  %12 = load ptr, ptr %11, align 8
  %13 = getelementptr inbounds nuw ptr, ptr %12, i64 %indvars.iv
  %14 = load ptr, ptr %13, align 8
  %15 = icmp eq ptr %14, null
  br i1 %15, label %17, label %16

16:                                               ; preds = %.lr.ph
  tail call void @_ZN6Assimp17ScenePreprocessor11ProcessMeshEP6aiMesh(ptr nonnull align 8 poison, ptr noundef nonnull %14)
  %.pre = load ptr, ptr %0, align 8
  br label %17

17:                                               ; preds = %.lr.ph, %16
  %18 = phi ptr [ %10, %.lr.ph ], [ %.pre, %16 ]
  %indvars.iv.next = add nuw nsw i64 %indvars.iv, 1
  %19 = getelementptr inbounds nuw i8, ptr %18, i64 16
  %20 = load i32, ptr %19, align 8
  %21 = zext i32 %20 to i64
  %22 = icmp samesign ult i64 %indvars.iv.next, %21
  br i1 %22, label %.lr.ph, label %.preheader, !llvm.loop !3

._crit_edge:                                      ; preds = %32, %.preheader
  %.lcssa22 = phi ptr [ %7, %.preheader ], [ %33, %32 ]
  %23 = getelementptr inbounds nuw i8, ptr %.lcssa22, i64 32
  %24 = load i32, ptr %23, align 8
  %.not = icmp eq i32 %24, 0
  br i1 %.not, label %38, label %85

.lr.ph25:                                         ; preds = %.preheader, %32
  %25 = phi ptr [ %33, %32 ], [ %7, %.preheader ]
  %indvars.iv37 = phi i64 [ %indvars.iv.next38, %32 ], [ 0, %.preheader ]
  %26 = getelementptr inbounds nuw i8, ptr %25, i64 56
  %27 = load ptr, ptr %26, align 8
  %28 = getelementptr inbounds nuw ptr, ptr %27, i64 %indvars.iv37
  %29 = load ptr, ptr %28, align 8
  %30 = icmp eq ptr %29, null
  br i1 %30, label %32, label %31

31:                                               ; preds = %.lr.ph25
  tail call void @_ZN6Assimp17ScenePreprocessor16ProcessAnimationEP11aiAnimation(ptr noundef nonnull align 8 dereferenceable(8) %0, ptr noundef nonnull %29)
  %.pre43 = load ptr, ptr %0, align 8
  br label %32

32:                                               ; preds = %.lr.ph25, %31
  %33 = phi ptr [ %25, %.lr.ph25 ], [ %.pre43, %31 ]
  %indvars.iv.next38 = add nuw nsw i64 %indvars.iv37, 1
  %34 = getelementptr inbounds nuw i8, ptr %33, i64 48
  %35 = load i32, ptr %34, align 8
  %36 = zext i32 %35 to i64
  %37 = icmp samesign ult i64 %indvars.iv.next38, %36
  br i1 %37, label %.lr.ph25, label %._crit_edge, !llvm.loop !5

38:                                               ; preds = %._crit_edge
  %39 = getelementptr inbounds nuw i8, ptr %.lcssa22, i64 16
  %40 = load i32, ptr %39, align 8
  %.not21 = icmp eq i32 %40, 0
  br i1 %.not21, label %85, label %41

41:                                               ; preds = %38
  %42 = tail call noalias noundef nonnull dereferenceable(16) ptr @_Znam(i64 noundef 16) #12
  %43 = getelementptr inbounds nuw i8, ptr %.lcssa22, i64 40
  store ptr %42, ptr %43, align 8
  call void @llvm.lifetime.start.p0(i64 1028, ptr nonnull %2) #13
  %44 = getelementptr inbounds nuw i8, ptr %2, i64 20
  call void @llvm.memset.p0.i64(ptr noundef nonnull align 4 dereferenceable(1028) %44, i8 0, i64 1008, i1 false)
  %45 = tail call noalias noundef nonnull dereferenceable(16) ptr @_Znwm(i64 noundef 16) #12
  invoke void @_ZN10aiMaterialC1Ev(ptr noundef nonnull align 8 dereferenceable(16) %45)
          to label %46 unwind label %67

46:                                               ; preds = %41
  %47 = load ptr, ptr %0, align 8
  %48 = getelementptr inbounds nuw i8, ptr %47, i64 40
  %49 = load ptr, ptr %48, align 8
  %50 = getelementptr inbounds nuw i8, ptr %47, i64 32
  %51 = load i32, ptr %50, align 8
  %52 = zext i32 %51 to i64
  %53 = getelementptr inbounds nuw ptr, ptr %49, i64 %52
  store ptr %45, ptr %53, align 8
  call void @llvm.lifetime.start.p0(i64 12, ptr nonnull %3) #13
  store float 0x3FE3333340000000, ptr %3, align 4
  %54 = getelementptr inbounds nuw i8, ptr %3, i64 4
  store float 0x3FE3333340000000, ptr %54, align 4
  %55 = getelementptr inbounds nuw i8, ptr %3, i64 8
  store float 0x3FE3333340000000, ptr %55, align 4
  %56 = call noundef i32 @_ZN10aiMaterial17AddBinaryPropertyEPKvjPKcjj18aiPropertyTypeInfo(ptr noundef nonnull align 8 dereferenceable(16) %45, ptr noundef nonnull %3, i32 noundef 12, ptr noundef nonnull @.str, i32 noundef 0, i32 noundef 0, i32 noundef 1)
  store i32 15, ptr %2, align 4
  %57 = getelementptr inbounds nuw i8, ptr %2, i64 4
  call void @llvm.memcpy.p0.p0.i64(ptr noundef nonnull align 4 dereferenceable(15) %57, ptr noundef nonnull align 1 dereferenceable(15) @.str.1, i64 15, i1 false)
  %58 = getelementptr inbounds nuw i8, ptr %2, i64 19
  store i8 0, ptr %58, align 1
  %59 = call noundef i32 @_ZN10aiMaterial11AddPropertyEPK8aiStringPKcjj(ptr noundef nonnull align 8 dereferenceable(16) %45, ptr noundef nonnull %2, ptr noundef nonnull @.str.2, i32 noundef 0, i32 noundef 0)
  %60 = call noundef ptr @_ZN6Assimp13DefaultLogger3getEv()
  call void @_ZN6Assimp6Logger5debugEPKc(ptr noundef nonnull align 8 dereferenceable(12) %60, ptr noundef nonnull @.str.3)
  %61 = load ptr, ptr %0, align 8
  %62 = getelementptr inbounds nuw i8, ptr %61, i64 16
  %63 = load i32, ptr %62, align 8
  %.not33 = icmp eq i32 %63, 0
  br i1 %.not33, label %._crit_edge29, label %.lr.ph28

._crit_edge29:                                    ; preds = %79, %46
  %.lcssa = phi ptr [ %61, %46 ], [ %80, %79 ]
  %64 = getelementptr inbounds nuw i8, ptr %.lcssa, i64 32
  %65 = load i32, ptr %64, align 8
  %66 = add i32 %65, 1
  store i32 %66, ptr %64, align 8
  call void @llvm.lifetime.end.p0(i64 12, ptr nonnull %3) #13
  call void @llvm.lifetime.end.p0(i64 1028, ptr nonnull %2) #13
  br label %85

67:                                               ; preds = %41
  %68 = landingpad { ptr, i32 }
          cleanup
  tail call void @_ZdlPvm(ptr noundef nonnull %45, i64 noundef 16) #14
  call void @llvm.lifetime.end.p0(i64 1028, ptr nonnull %2) #13
  resume { ptr, i32 } %68

.lr.ph28:                                         ; preds = %46, %79
  %69 = phi ptr [ %80, %79 ], [ %61, %46 ]
  %indvars.iv40 = phi i64 [ %indvars.iv.next41, %79 ], [ 0, %46 ]
  %70 = getelementptr inbounds nuw i8, ptr %69, i64 24
  %71 = load ptr, ptr %70, align 8
  %72 = getelementptr inbounds nuw ptr, ptr %71, i64 %indvars.iv40
  %73 = load ptr, ptr %72, align 8
  %74 = icmp eq ptr %73, null
  br i1 %74, label %79, label %75

75:                                               ; preds = %.lr.ph28
  %76 = getelementptr inbounds nuw i8, ptr %69, i64 32
  %77 = load i32, ptr %76, align 8
  %78 = getelementptr inbounds nuw i8, ptr %73, i64 232
  store i32 %77, ptr %78, align 8
  %.pre44 = load ptr, ptr %0, align 8
  br label %79

79:                                               ; preds = %.lr.ph28, %75
  %80 = phi ptr [ %69, %.lr.ph28 ], [ %.pre44, %75 ]
  %indvars.iv.next41 = add nuw nsw i64 %indvars.iv40, 1
  %81 = getelementptr inbounds nuw i8, ptr %80, i64 16
  %82 = load i32, ptr %81, align 8
  %83 = zext i32 %82 to i64
  %84 = icmp samesign ult i64 %indvars.iv.next41, %83
  br i1 %84, label %.lr.ph28, label %._crit_edge29, !llvm.loop !6

85:                                               ; preds = %._crit_edge29, %38, %._crit_edge
  ret void
}